target datalayout = "e-m:e-p270:32:32-p271:32:32-p272:64:64-i64:64-i128:128-f80:128-n8:16:32:64-S128"
target triple = "x86_64-pc-linux-gnu"

%struct.ssl_test_server_option = type { ptr, ptr }
%struct.CONF_VALUE = type { ptr, ptr, ptr }

@.str = private unnamed_addr constant [39 x i8] c"../openssl/test/helpers/ssl_test_ctx.c\00", align 1
@.str.9 = private unnamed_addr constant [27 x i8] c"Bad value %s for option %s\00", align 1
@.str.10 = private unnamed_addr constant [24 x i8] c"Unknown test option: %s\00", align 1
@.str.94 = private unnamed_addr constant [50 x i8] c"sk_conf = NCONF_get_section(conf, server_section)\00", align 1

; Function Attrs: inlinehint nounwind uwtable
define internal ptr @ossl_check_const_CONF_VALUE_sk_type(ptr noundef %0) #3 {
  %2 = alloca ptr, align 8
  store ptr %0, ptr %2, align 8, !tbaa !39
  %3 = load ptr, ptr %2, align 8, !tbaa !39
  ret ptr %3
}

; Function Attrs: nounwind uwtable
define internal i32 @parse_server_options(ptr noundef %0, ptr noundef %1, ptr noundef %2) #0 {
  %4 = alloca i32, align 4
  %5 = alloca ptr, align 8
  %6 = alloca ptr, align 8
  %7 = alloca ptr, align 8
  %8 = alloca ptr, align 8
  %9 = alloca i32, align 4
  %10 = alloca i64, align 8
  %11 = alloca i32, align 4
  %12 = alloca i32, align 4
  %13 = alloca ptr, align 8
  store ptr %0, ptr %5, align 8, !tbaa !8
  store ptr %1, ptr %6, align 8, !tbaa !36
  store ptr %2, ptr %7, align 8, !tbaa !38
  call void @llvm.lifetime.start.p0(i64 8, ptr %8) #7
  call void @llvm.lifetime.start.p0(i64 4, ptr %9) #7
  call void @llvm.lifetime.start.p0(i64 8, ptr %10) #7
  %14 = load ptr, ptr %6, align 8, !tbaa !36
  %15 = load ptr, ptr %7, align 8, !tbaa !38
  %16 = call ptr @NCONF_get_section(ptr noundef %14, ptr noundef %15)
  store ptr %16, ptr %8, align 8, !tbaa !39
  %17 = call i32 @test_ptr(ptr noundef @.str, i32 noundef 832, ptr noundef @.str.94, ptr noundef %16)
  %18 = icmp ne i32 %17, 0
  br i1 %18, label %20, label %19

19:                                               ; preds = %3
  store i32 0, ptr %4, align 4
  store i32 1, ptr %11, align 4
  br label %83

20:                                               ; preds = %3
  store i32 0, ptr %9, align 4, !tbaa !4
  br label %21

21:                                               ; preds = %79, %20
  %22 = load i32, ptr %9, align 4, !tbaa !4
  %23 = load ptr, ptr %8, align 8, !tbaa !39
  %24 = call ptr @ossl_check_const_CONF_VALUE_sk_type(ptr noundef %23)
  %25 = call i32 @OPENSSL_sk_num(ptr noundef %24)
  %26 = icmp slt i32 %22, %25
  br i1 %26, label %27, label %82

27:                                               ; preds = %21
  call void @llvm.lifetime.start.p0(i64 4, ptr %12) #7
  store i32 0, ptr %12, align 4, !tbaa !4
  call void @llvm.lifetime.start.p0(i64 8, ptr %13) #7
  %28 = load ptr, ptr %8, align 8, !tbaa !39
  %29 = call ptr @ossl_check_const_CONF_VALUE_sk_type(ptr noundef %28)
  %30 = load i32, ptr %9, align 4, !tbaa !4
  %31 = call ptr @OPENSSL_sk_value(ptr noundef %29, i32 noundef %30)
  store ptr %31, ptr %13, align 8, !tbaa !8
  store i64 0, ptr %10, align 8, !tbaa !10
  br label %32

32:                                               ; preds = %65, %27
  %33 = load i64, ptr %10, align 8, !tbaa !10
  %34 = icmp ult i64 %33, 9
  br i1 %34, label %35, label %68

35:                                               ; preds = %32
  %36 = load ptr, ptr %13, align 8, !tbaa !8
  %37 = getelementptr inbounds nuw %struct.CONF_VALUE, ptr %36, i32 0, i32 1
  %38 = load ptr, ptr %37, align 8, !tbaa !41
  %39 = load i64, ptr %10, align 8, !tbaa !10
  %40 = getelementptr inbounds nuw [9 x %struct.ssl_test_server_option], ptr @ssl_test_server_options, i64 0, i64 %39
  %41 = getelementptr inbounds nuw %struct.ssl_test_server_option, ptr %40, i32 0, i32 0
  %42 = load ptr, ptr %41, align 16, !tbaa !44
  %43 = call i32 @strcmp(ptr noundef %38, ptr noundef %42) #8
  %44 = icmp eq i32 %43, 0
  br i1 %44, label %45, label %64

45:                                               ; preds = %35
  %46 = load i64, ptr %10, align 8, !tbaa !10
  %47 = getelementptr inbounds nuw [9 x %struct.ssl_test_server_option], ptr @ssl_test_server_options, i64 0, i64 %46
  %48 = getelementptr inbounds nuw %struct.ssl_test_server_option, ptr %47, i32 0, i32 1
  %49 = load ptr, ptr %48, align 8, !tbaa !46
  %50 = load ptr, ptr %5, align 8, !tbaa !8
  %51 = load ptr, ptr %13, align 8, !tbaa !8
  %52 = getelementptr inbounds nuw %struct.CONF_VALUE, ptr %51, i32 0, i32 2
  %53 = load ptr, ptr %52, align 8, !tbaa !43
  %54 = call i32 %49(ptr noundef %50, ptr noundef %53)
  %55 = icmp ne i32 %54, 0
  br i1 %55, label %63, label %56

56:                                               ; preds = %45
  %57 = load ptr, ptr %13, align 8, !tbaa !8
  %58 = getelementptr inbounds nuw %struct.CONF_VALUE, ptr %57, i32 0, i32 2
  %59 = load ptr, ptr %58, align 8, !tbaa !43
  %60 = load ptr, ptr %13, align 8, !tbaa !8
  %61 = getelementptr inbounds nuw %struct.CONF_VALUE, ptr %60, i32 0, i32 1
  %62 = load ptr, ptr %61, align 8, !tbaa !41
  call void (ptr, i32, ptr, ...) @test_info(ptr noundef @.str, i32 noundef 842, ptr noundef @.str.9, ptr noundef %59, ptr noundef %62)
  store i32 0, ptr %4, align 4
  store i32 1, ptr %11, align 4
  br label %76

63:                                               ; preds = %45
  store i32 1, ptr %12, align 4, !tbaa !4
  br label %68

64:                                               ; preds = %35
  br label %65

65:                                               ; preds = %64
  %66 = load i64, ptr %10, align 8, !tbaa !10
  %67 = add i64 %66, 1
  store i64 %67, ptr %10, align 8, !tbaa !10
  br label %32, !llvm.loop !51

68:                                               ; preds = %63, %32
  %69 = load i32, ptr %12, align 4, !tbaa !4
  %70 = icmp ne i32 %69, 0
  br i1 %70, label %75, label %71

71:                                               ; preds = %68
  %72 = load ptr, ptr %13, align 8, !tbaa !8
  %73 = getelementptr inbounds nuw %struct.CONF_VALUE, ptr %72, i32 0, i32 1
  %74 = load ptr, ptr %73, align 8, !tbaa !41
  call void (ptr, i32, ptr, ...) @test_info(ptr noundef @.str, i32 noundef 850, ptr noundef @.str.10, ptr noundef %74)
  store i32 0, ptr %4, align 4
  store i32 1, ptr %11, align 4
  br label %76

75:                                               ; preds = %68
  store i32 0, ptr %11, align 4
  br label %76

76:                                               ; preds = %75, %71, %56
  call void @llvm.lifetime.end.p0(i64 8, ptr %13) #7
  call void @llvm.lifetime.end.p0(i64 4, ptr %12) #7
  %77 = load i32, ptr %11, align 4
  switch i32 %77, label %83 [
    i32 0, label %78
  ]

78:                                               ; preds = %76
  br label %79

79:                                               ; preds = %78
  %80 = load i32, ptr %9, align 4, !tbaa !4
  %81 = add nsw i32 %80, 1
  store i32 %81, ptr %9, align 4, !tbaa !4
  br label %21, !llvm.loop !52

82:                                               ; preds = %21
  store i32 1, ptr %4, align 4
  store i32 1, ptr %11, align 4
  br label %83

83:                                               ; preds = %82, %76, %19
  call void @llvm.lifetime.end.p0(i64 8, ptr %10) #7
  call void @llvm.lifetime.end.p0(i64 4, ptr %9) #7
  call void @llvm.lifetime.end.p0(i64 8, ptr %8) #7
  %84 = load i32, ptr %4, align 4
  ret i32 %84
}