; Function Attrs: nounwind uwtable
define internal fastcc range(i32 0, 2) i32 @parse_server_options(ptr noundef %0, ptr noundef %1, ptr noundef %2) unnamed_addr #1 {
  %4 = tail call ptr @NCONF_get_section(ptr noundef %1, ptr noundef %2) #8
  %5 = tail call i32 @test_ptr(ptr noundef nonnull @.str, i32 noundef 832, ptr noundef nonnull @.str.94, ptr noundef %4) #8
  %.not = icmp eq i32 %5, 0
  br i1 %.not, label %.critedge26, label %.preheader

.preheader:                                       ; preds = %3
  %6 = tail call i32 @OPENSSL_sk_num(ptr noundef %4) #8
  %7 = icmp sgt i32 %6, 0
  br i1 %7, label %.lr.ph, label %.critedge26

8:                                                ; preds = %22
  %9 = add nuw nsw i32 %.02234, 1
  %10 = tail call i32 @OPENSSL_sk_num(ptr noundef %4) #8
  %11 = icmp slt i32 %9, %10
  br i1 %11, label %.lr.ph, label %.critedge26, !llvm.loop !40

.lr.ph:                                           ; preds = %.preheader, %8
  %.02234 = phi i32 [ %9, %8 ], [ 0, %.preheader ]
  %12 = tail call ptr @OPENSSL_sk_value(ptr noundef %4, i32 noundef %.02234) #8
  %13 = getelementptr inbounds nuw i8, ptr %12, i64 8
  %14 = load ptr, ptr %13, align 8, !tbaa !30
  br label %17

15:                                               ; preds = %17
  %16 = add nuw nsw i64 %.02131, 1
  %exitcond = icmp eq i64 %16, 9
  br i1 %exitcond, label %.critedge, label %17, !llvm.loop !41

17:                                               ; preds = %.lr.ph, %15
  %.02131 = phi i64 [ 0, %.lr.ph ], [ %16, %15 ]
  %18 = getelementptr inbounds nuw [9 x %struct.ssl_test_server_option], ptr @ssl_test_server_options, i64 0, i64 %.02131
  %19 = load ptr, ptr %18, align 16, !tbaa !34
  %20 = tail call i32 @strcmp(ptr noundef nonnull dereferenceable(1) %14, ptr noundef nonnull dereferenceable(1) %19) #9
  %21 = icmp eq i32 %20, 0
  br i1 %21, label %22, label %15

22:                                               ; preds = %17
  %23 = getelementptr inbounds nuw i8, ptr %18, i64 8
  %24 = load ptr, ptr %23, align 8, !tbaa !36
  %25 = getelementptr inbounds nuw i8, ptr %12, i64 16
  %26 = load ptr, ptr %25, align 8, !tbaa !32
  %27 = tail call i32 %24(ptr noundef %0, ptr noundef %26) #8
  %.not23 = icmp eq i32 %27, 0
  br i1 %.not23, label %28, label %8

28:                                               ; preds = %22
  %29 = getelementptr inbounds nuw i8, ptr %12, i64 8
  %30 = getelementptr inbounds nuw i8, ptr %12, i64 16
  %31 = load ptr, ptr %30, align 8, !tbaa !32
  %32 = load ptr, ptr %29, align 8, !tbaa !30
  tail call void (ptr, i32, ptr, ...) @test_info(ptr noundef nonnull @.str, i32 noundef 842, ptr noundef nonnull @.str.9, ptr noundef %31, ptr noundef %32) #8
  br label %.critedge26

.critedge:                                        ; preds = %15
  tail call void (ptr, i32, ptr, ...) @test_info(ptr noundef nonnull @.str, i32 noundef 850, ptr noundef nonnull @.str.10, ptr noundef nonnull %14) #8
  br label %.critedge26

.critedge26:                                      ; preds = %8, %.preheader, %.critedge, %28, %3
  %.0 = phi i32 [ 0, %3 ], [ 0, %28 ], [ 0, %.critedge ], [ 1, %.preheader ], [ 1, %8 ]
  ret i32 %.0
}